target datalayout = "e-m:e-p270:32:32-p271:32:32-p272:64:64-i64:64-i128:128-f80:128-n8:16:32:64-S128"
target triple = "x86_64-pc-linux-gnu"

%struct._GList = type { ptr, ptr, ptr }
%struct.dt_tag_t = type { i32, ptr, ptr, ptr, i32, i32, i32 }

; Function Attrs: nounwind uwtable
define void @dt_tag_free_result(ptr noundef %0) #0 {
  %2 = alloca ptr, align 8
  store ptr %0, ptr %2, align 8, !tbaa !66
  %3 = load ptr, ptr %2, align 8, !tbaa !66
  %4 = icmp ne ptr %3, null
  br i1 %4, label %5, label %12

5:                                                ; preds = %1
  %6 = load ptr, ptr %2, align 8, !tbaa !66
  %7 = load ptr, ptr %6, align 8, !tbaa !59
  %8 = icmp ne ptr %7, null
  br i1 %8, label %9, label %12

9:                                                ; preds = %5
  %10 = load ptr, ptr %2, align 8, !tbaa !66
  %11 = load ptr, ptr %10, align 8, !tbaa !59
  call void @g_list_free_full(ptr noundef %11, ptr noundef @_free_result_item)
  br label %12

12:                                               ; preds = %9, %5, %1
  ret void
}

; Function Attrs: nounwind uwtable
define ptr @dt_tag_get_hierarchical_export(i32 noundef %0, i32 noundef %1) #0 {
  %3 = alloca ptr, align 8
  %4 = alloca i32, align 4
  %5 = alloca i32, align 4
  %6 = alloca ptr, align 8
  %7 = alloca ptr, align 8
  %8 = alloca i32, align 4
  %9 = alloca i32, align 4
  %10 = alloca i32, align 4
  %11 = alloca ptr, align 8
  %12 = alloca ptr, align 8
  store i32 %0, ptr %4, align 4, !tbaa !52
  store i32 %1, ptr %5, align 4, !tbaa !52
  call void @llvm.lifetime.start.p0(i64 8, ptr %6) #8
  store ptr null, ptr %6, align 8, !tbaa !59
  call void @llvm.lifetime.start.p0(i64 8, ptr %7) #8
  store ptr null, ptr %7, align 8, !tbaa !59
  call void @llvm.lifetime.start.p0(i64 4, ptr %8) #8
  %13 = load i32, ptr %4, align 4, !tbaa !52
  %14 = call i32 @dt_tag_get_attached(i32 noundef %13, ptr noundef %6, i32 noundef 1)
  store i32 %14, ptr %8, align 4, !tbaa !52
  %15 = load i32, ptr %8, align 4, !tbaa !52
  %16 = icmp ult i32 %15, 1
  br i1 %16, label %17, label %18

17:                                               ; preds = %2
  store ptr null, ptr %3, align 8
  store i32 1, ptr %9, align 4
  br label %59

18:                                               ; preds = %2
  call void @llvm.lifetime.start.p0(i64 4, ptr %10) #8
  %19 = load i32, ptr %5, align 4, !tbaa !52
  %20 = and i32 %19, 65536
  store i32 %20, ptr %10, align 4, !tbaa !52
  call void @llvm.lifetime.start.p0(i64 8, ptr %11) #8
  %21 = load ptr, ptr %6, align 8, !tbaa !59
  store ptr %21, ptr %11, align 8, !tbaa !59
  br label %22

22:                                               ; preds = %54, %18
  %23 = load ptr, ptr %11, align 8, !tbaa !59
  %24 = icmp ne ptr %23, null
  br i1 %24, label %26, label %25

25:                                               ; preds = %22
  store i32 2, ptr %9, align 4
  call void @llvm.lifetime.end.p0(i64 8, ptr %11) #8
  br label %56

26:                                               ; preds = %22
  call void @llvm.lifetime.start.p0(i64 8, ptr %12) #8
  %27 = load ptr, ptr %11, align 8, !tbaa !59
  %28 = getelementptr inbounds nuw %struct._GList, ptr %27, i32 0, i32 0
  %29 = load ptr, ptr %28, align 8, !tbaa !60
  store ptr %29, ptr %12, align 8, !tbaa !78
  %30 = load i32, ptr %10, align 4, !tbaa !52
  %31 = icmp ne i32 %30, 0
  br i1 %31, label %38, label %32

32:                                               ; preds = %26
  %33 = load ptr, ptr %12, align 8, !tbaa !78
  %34 = getelementptr inbounds nuw %struct.dt_tag_t, ptr %33, i32 0, i32 6
  %35 = load i32, ptr %34, align 8, !tbaa !82
  %36 = and i32 %35, 2
  %37 = icmp ne i32 %36, 0
  br i1 %37, label %45, label %38

38:                                               ; preds = %32, %26
  %39 = load ptr, ptr %7, align 8, !tbaa !59
  %40 = load ptr, ptr %12, align 8, !tbaa !78
  %41 = getelementptr inbounds nuw %struct.dt_tag_t, ptr %40, i32 0, i32 1
  %42 = load ptr, ptr %41, align 8, !tbaa !80
  %43 = call noalias ptr @g_strdup(ptr noundef %42)
  %44 = call ptr @g_list_prepend(ptr noundef %39, ptr noundef %43)
  store ptr %44, ptr %7, align 8, !tbaa !59
  br label %45

45:                                               ; preds = %38, %32
  call void @llvm.lifetime.end.p0(i64 8, ptr %12) #8
  br label %46

46:                                               ; preds = %45
  %47 = load ptr, ptr %11, align 8, !tbaa !59
  %48 = icmp ne ptr %47, null
  br i1 %48, label %49, label %53

49:                                               ; preds = %46
  %50 = load ptr, ptr %11, align 8, !tbaa !59
  %51 = getelementptr inbounds nuw %struct._GList, ptr %50, i32 0, i32 1
  %52 = load ptr, ptr %51, align 8, !tbaa !64
  br label %54

53:                                               ; preds = %46
  br label %54

54:                                               ; preds = %53, %49
  %55 = phi ptr [ %52, %49 ], [ null, %53 ]
  store ptr %55, ptr %11, align 8, !tbaa !59
  br label %22

56:                                               ; preds = %25
  call void @dt_tag_free_result(ptr noundef %6)
  %57 = load ptr, ptr %7, align 8, !tbaa !59
  %58 = call ptr @g_list_reverse(ptr noundef %57)
  store ptr %58, ptr %3, align 8
  store i32 1, ptr %9, align 4
  call void @llvm.lifetime.end.p0(i64 4, ptr %10) #8
  br label %59

59:                                               ; preds = %56, %17
  call void @llvm.lifetime.end.p0(i64 4, ptr %8) #8
  call void @llvm.lifetime.end.p0(i64 8, ptr %7) #8
  call void @llvm.lifetime.end.p0(i64 8, ptr %6) #8
  %60 = load ptr, ptr %3, align 8
  ret ptr %60
}