; Function Attrs: nounwind uwtable
define ptr @dt_tag_get_hierarchical_export(i32 noundef %0, i32 noundef %1) local_unnamed_addr #0 {
  %3 = alloca ptr, align 8
  call void @llvm.lifetime.start.p0(i64 8, ptr nonnull %3) #11
  store ptr null, ptr %3, align 8, !tbaa !63
  %4 = call i32 @dt_tag_get_attached(i32 noundef %0, ptr noundef nonnull %3, i32 noundef 1)
  %5 = icmp eq i32 %4, 0
  br i1 %5, label %26, label %6

6:                                                ; preds = %2
  %.01216 = load ptr, ptr %3, align 8, !tbaa !63
  %.not17 = icmp eq ptr %.01216, null
  br i1 %.not17, label %dt_tag_free_result.exit, label %.lr.ph

.lr.ph:                                           ; preds = %6
  %7 = and i32 %1, 65536
  %.not14 = icmp eq i32 %7, 0
  br i1 %.not14, label %.lr.ph.split.us, label %.lr.ph.split

.lr.ph.split.us:                                  ; preds = %.lr.ph, %17
  %.01219.us = phi ptr [ %.012.us, %17 ], [ %.01216, %.lr.ph ]
  %.01318.us = phi ptr [ %.1.us, %17 ], [ null, %.lr.ph ]
  %8 = load ptr, ptr %.01219.us, align 8, !tbaa !58
  %9 = getelementptr inbounds nuw i8, ptr %8, i64 40
  %10 = load i32, ptr %9, align 8, !tbaa !72
  %11 = and i32 %10, 2
  %.not15.us = icmp eq i32 %11, 0
  br i1 %.not15.us, label %12, label %17

12:                                               ; preds = %.lr.ph.split.us
  %13 = getelementptr inbounds nuw i8, ptr %8, i64 8
  %14 = load ptr, ptr %13, align 8, !tbaa !70
  %15 = tail call noalias ptr @g_strdup(ptr noundef %14) #11
  %16 = tail call ptr @g_list_prepend(ptr noundef %.01318.us, ptr noundef %15) #11
  br label %17

17:                                               ; preds = %12, %.lr.ph.split.us
  %.1.us = phi ptr [ %16, %12 ], [ %.01318.us, %.lr.ph.split.us ]
  %18 = getelementptr inbounds nuw i8, ptr %.01219.us, i64 8
  %.012.us = load ptr, ptr %18, align 8, !tbaa !63
  %.not.us = icmp eq ptr %.012.us, null
  br i1 %.not.us, label %._crit_edge, label %.lr.ph.split.us

._crit_edge:                                      ; preds = %.lr.ph.split, %17
  %.013.lcssa = phi ptr [ %.1.us, %17 ], [ %24, %.lr.ph.split ]
  tail call void @g_list_free_full(ptr noundef nonnull %.01216, ptr noundef nonnull @_free_result_item) #11
  br label %dt_tag_free_result.exit

dt_tag_free_result.exit:                          ; preds = %6, %._crit_edge
  %.013.lcssa22 = phi ptr [ %.013.lcssa, %._crit_edge ], [ null, %6 ]
  %19 = tail call ptr @g_list_reverse(ptr noundef %.013.lcssa22) #11
  br label %26

.lr.ph.split:                                     ; preds = %.lr.ph, %.lr.ph.split
  %.01219 = phi ptr [ %.012, %.lr.ph.split ], [ %.01216, %.lr.ph ]
  %.01318 = phi ptr [ %24, %.lr.ph.split ], [ null, %.lr.ph ]
  %20 = load ptr, ptr %.01219, align 8, !tbaa !58
  %21 = getelementptr inbounds nuw i8, ptr %20, i64 8
  %22 = load ptr, ptr %21, align 8, !tbaa !70
  %23 = tail call noalias ptr @g_strdup(ptr noundef %22) #11
  %24 = tail call ptr @g_list_prepend(ptr noundef %.01318, ptr noundef %23) #11
  %25 = getelementptr inbounds nuw i8, ptr %.01219, i64 8
  %.012 = load ptr, ptr %25, align 8, !tbaa !63
  %.not = icmp eq ptr %.012, null
  br i1 %.not, label %._crit_edge, label %.lr.ph.split

26:                                               ; preds = %2, %dt_tag_free_result.exit
  %.0 = phi ptr [ %19, %dt_tag_free_result.exit ], [ null, %2 ]
  call void @llvm.lifetime.end.p0(i64 8, ptr nonnull %3) #11
  ret ptr %.0
}